target datalayout = "e-m:e-p270:32:32-p271:32:32-p272:64:64-i64:64-i128:128-f80:128-n8:16:32:64-S128"
target triple = "x86_64-pc-linux-gnu"

%struct.STEAM_RemoteStorage = type { ptr, ptr, ptr, ptr, ptr, ptr, ptr, ptr, ptr, ptr }

@.str.21 = private unnamed_addr constant [31 x i8] c"SteamRemoteStorage unavailable\00", align 1
@.str.26 = private unnamed_addr constant [49 x i8] c"SteamRemoteStorage()->EndFileWriteBatch() failed\00", align 1

; Function Attrs: nounwind uwtable
define internal zeroext i1 @STEAM_CloseStorage(ptr noundef %0) #0 {
  %2 = alloca ptr, align 8
  %3 = alloca i8, align 1
  %4 = alloca ptr, align 8
  %5 = alloca ptr, align 8
  store ptr %0, ptr %2, align 8
  call void @llvm.lifetime.start.p0(i64 1, ptr %3) #4
  store i8 1, ptr %3, align 1
  call void @llvm.lifetime.start.p0(i64 8, ptr %4) #4
  %6 = load ptr, ptr %2, align 8
  store ptr %6, ptr %4, align 8
  call void @llvm.lifetime.start.p0(i64 8, ptr %5) #4
  %7 = load ptr, ptr %4, align 8
  %8 = getelementptr inbounds nuw %struct.STEAM_RemoteStorage, ptr %7, i32 0, i32 1
  %9 = load ptr, ptr %8, align 8
  %10 = call ptr %9()
  store ptr %10, ptr %5, align 8
  %11 = load ptr, ptr %5, align 8
  %12 = icmp eq ptr %11, null
  br i1 %12, label %13, label %16

13:                                               ; preds = %1
  %14 = call zeroext i1 (ptr, ...) @SDL_SetError_REAL(ptr noundef @.str.21)
  %15 = zext i1 %14 to i8
  store i8 %15, ptr %3, align 1
  br label %26

16:                                               ; preds = %1
  %17 = load ptr, ptr %4, align 8
  %18 = getelementptr inbounds nuw %struct.STEAM_RemoteStorage, ptr %17, i32 0, i32 5
  %19 = load ptr, ptr %18, align 8
  %20 = load ptr, ptr %5, align 8
  %21 = call zeroext i1 %19(ptr noundef %20)
  br i1 %21, label %25, label %22

22:                                               ; preds = %16
  %23 = call zeroext i1 (ptr, ...) @SDL_SetError_REAL(ptr noundef @.str.26)
  %24 = zext i1 %23 to i8
  store i8 %24, ptr %3, align 1
  br label %25

25:                                               ; preds = %22, %16
  br label %26

26:                                               ; preds = %25, %13
  %27 = load ptr, ptr %4, align 8
  %28 = getelementptr inbounds nuw %struct.STEAM_RemoteStorage, ptr %27, i32 0, i32 0
  %29 = load ptr, ptr %28, align 8
  call void @SDL_UnloadObject_REAL(ptr noundef %29)
  %30 = load ptr, ptr %4, align 8
  call void @SDL_free_REAL(ptr noundef %30)
  %31 = load i8, ptr %3, align 1, !range !3, !noundef !4
  %32 = trunc i8 %31 to i1
  call void @llvm.lifetime.end.p0(i64 8, ptr %5) #4
  call void @llvm.lifetime.end.p0(i64 8, ptr %4) #4
  call void @llvm.lifetime.end.p0(i64 1, ptr %3) #4
  ret i1 %32
}