; Function Attrs: nounwind uwtable
define internal zeroext i1 @STEAM_CloseStorage(ptr noundef %0) #0 {
  %2 = getelementptr inbounds nuw i8, ptr %0, i64 8
  %3 = load ptr, ptr %2, align 8
  %4 = tail call ptr %3() #5
  %5 = icmp eq ptr %4, null
  br i1 %5, label %.sink.split, label %6

6:                                                ; preds = %1
  %7 = getelementptr inbounds nuw i8, ptr %0, i64 40
  %8 = load ptr, ptr %7, align 8
  %9 = tail call zeroext i1 %8(ptr noundef nonnull %4) #5
  br i1 %9, label %11, label %.sink.split

.sink.split:                                      ; preds = %6, %1
  %.str.26.sink = phi ptr [ @.str.21, %1 ], [ @.str.26, %6 ]
  %10 = tail call zeroext i1 (ptr, ...) @SDL_SetError_REAL(ptr noundef nonnull %.str.26.sink) #5
  br label %11

11:                                               ; preds = %.sink.split, %6
  %.0.shrunk = phi i1 [ true, %6 ], [ %10, %.sink.split ]
  %12 = load ptr, ptr %0, align 8
  tail call void @SDL_UnloadObject_REAL(ptr noundef %12) #5
  tail call void @SDL_free_REAL(ptr noundef nonnull %0) #5
  ret i1 %.0.shrunk
}